ccopy_reg
_reconstructor
p0
(csklearn.preprocessing.data
StandardScaler
p1
c__builtin__
object
p2
Ntp3
Rp4
(dp5
S'mean_'
p6
cnumpy.core.multiarray
_reconstruct
p7
(cnumpy
ndarray
p8
(I0
tp9
S'b'
p10
tp11
Rp12
(I1
(I2
tp13
cnumpy
dtype
p14
(S'f8'
p15
I0
I1
tp16
Rp17
(I3
S'<'
p18
NNNI-1
I-1
I0
tp19
bI00
S'\x83\xe1_B\xe8\x90\xe6?-\xf8\x98C\x83\xac\xe1?'
p20
tp21
bsS'with_mean'
p22
I01
sS'var_'
p23
g7
(g8
(I0
tp24
g10
tp25
Rp26
(I1
(I2
tp27
g17
I00
S'\xc8\x1ci\xfc\x8b\x90\x88?<|\xd0o\xef@\x83?'
p28
tp29
bsS'scale_'
p30
g7
(g8
(I0
tp31
g10
tp32
Rp33
(I1
(I2
tp34
g17
I00
S',\x94\x12\xf8r\t\xbc?\xabR{\x17[\xd2\xb8?'
p35
tp36
bsS'with_std'
p37
I01
sS'n_samples_seen_'
p38
I33
sS'_sklearn_version'
p39
S'0.19.1'
p40
sS'copy'
p41
I01
sb.